target datalayout = "e-m:e-p270:32:32-p271:32:32-p272:64:64-i64:64-i128:128-f80:128-n8:16:32:64-S128"
target triple = "x86_64-pc-linux-gnu"

%struct.H5AC_proxy_entry_t = type { %struct.H5C_cache_entry_t, i64, ptr, i64, i64, i64 }
%struct.H5C_cache_entry_t = type { ptr, i64, i64, ptr, i8, ptr, i8, i8, i8, i8, i32, i8, i8, i8, i8, i8, i32, ptr, i32, i32, i32, i32, i32, i8, i8, ptr, ptr, ptr, ptr, ptr, ptr, i8, i32, i8, i64, ptr, i64, i64, i32, i8, i32, i32, i8, ptr, ptr, ptr }

@H5AC_init_g = external global i8, align 1
@H5_libterm_g = external global i8, align 1
@.str.1 = private unnamed_addr constant [109 x i8] c"generated/home/dtcxzyw/WorkSpace/Projects/compilers/llvm-opt-benchmark/bench/hdf5/hdf5/src/H5ACproxy_entry.c\00", align 1
@H5E_FUNC_g = external global i64, align 8
@H5E_CANTINIT_g = external global i64, align 8
@.str.2 = private unnamed_addr constant [32 x i8] c"interface initialization failed\00", align 1
@H5E_CACHE_g = external global i64, align 8
@__func__.H5AC_proxy_entry_add_parent = private unnamed_addr constant [28 x i8] c"H5AC_proxy_entry_add_parent\00", align 1
@H5E_CANTCREATE_g = external global i64, align 8
@.str.4 = private unnamed_addr constant [54 x i8] c"unable to create skip list for parents of proxy entry\00", align 1
@H5E_CANTINSERT_g = external global i64, align 8
@.str.5 = private unnamed_addr constant [47 x i8] c"unable to insert parent into proxy's skip list\00", align 1
@H5E_CANTDEPEND_g = external global i64, align 8
@.str.6 = private unnamed_addr constant [46 x i8] c"unable to set flush dependency on proxy entry\00", align 1

; Function Attrs: nounwind uwtable
define i32 @H5AC_proxy_entry_add_parent(ptr noundef %0, ptr noundef %1) #0 {
  %3 = alloca ptr, align 8
  %4 = alloca ptr, align 8
  %5 = alloca ptr, align 8
  %6 = alloca i32, align 4
  %7 = alloca i8, align 1
  store ptr %0, ptr %3, align 8, !tbaa !19
  store ptr %1, ptr %4, align 8, !tbaa !3
  call void @llvm.lifetime.start.p0(i64 8, ptr %5) #4
  %8 = load ptr, ptr %4, align 8, !tbaa !3
  store ptr %8, ptr %5, align 8, !tbaa !32
  call void @llvm.lifetime.start.p0(i64 4, ptr %6) #4
  store i32 0, ptr %6, align 4, !tbaa !17
  call void @llvm.lifetime.start.p0(i64 1, ptr %7) #4
  store i8 0, ptr %7, align 1, !tbaa !9
  %9 = load i8, ptr @H5AC_init_g, align 1, !tbaa !9, !range !11, !noundef !12
  %10 = trunc i8 %9 to i1
  br i1 %10, label %15, label %11

11:                                               ; preds = %2
  %12 = load i8, ptr @H5_libterm_g, align 1, !tbaa !9, !range !11, !noundef !12
  %13 = trunc i8 %12 to i1
  %14 = xor i1 %13, true
  br label %15

15:                                               ; preds = %11, %2
  %16 = phi i1 [ false, %2 ], [ %14, %11 ]
  %17 = xor i1 %16, true
  %18 = xor i1 %17, true
  %19 = zext i1 %18 to i32
  %20 = sext i32 %19 to i64
  %21 = call i64 @llvm.expect.i64(i64 %20, i64 0)
  %22 = icmp ne i64 %21, 0
  br i1 %22, label %23, label %46

23:                                               ; preds = %15
  store i8 1, ptr @H5AC_init_g, align 1, !tbaa !9
  %24 = call i32 @H5AC__init_package()
  %25 = icmp slt i32 %24, 0
  br i1 %25, label %26, label %45

26:                                               ; preds = %23
  store i8 0, ptr @H5AC_init_g, align 1, !tbaa !9
  br label %27

27:                                               ; preds = %26
  br label %28

28:                                               ; preds = %27
  br label %29

29:                                               ; preds = %28
  %30 = load i64, ptr @H5E_FUNC_g, align 8, !tbaa !13
  %31 = load i64, ptr @H5E_CANTINIT_g, align 8, !tbaa !13
  %32 = call i32 (ptr, ptr, i32, i64, i64, ptr, ...) @H5E_printf_stack(ptr noundef @.str.1, ptr noundef @__func__.H5AC_proxy_entry_add_parent, i32 noundef 146, i64 noundef %30, i64 noundef %31, ptr noundef @.str.2)
  br label %33

33:                                               ; preds = %29
  br label %34

34:                                               ; preds = %33
  store i8 1, ptr %7, align 1, !tbaa !9
  %35 = load i8, ptr %7, align 1, !tbaa !9, !range !11, !noundef !12
  %36 = trunc i8 %35 to i1
  %37 = zext i1 %36 to i8
  store i8 %37, ptr %7, align 1, !tbaa !9
  br label %38

38:                                               ; preds = %34
  br label %39

39:                                               ; preds = %38
  br label %40

40:                                               ; preds = %39
  store i32 -1, ptr %6, align 4, !tbaa !17
  br label %150

41:                                               ; No predecessors!
  br label %42

42:                                               ; preds = %41
  br label %43

43:                                               ; preds = %42
  br label %44

44:                                               ; preds = %43
  br label %45

45:                                               ; preds = %44, %23
  br label %46

46:                                               ; preds = %45, %15
  %47 = load i8, ptr @H5AC_init_g, align 1, !tbaa !9, !range !11, !noundef !12
  %48 = trunc i8 %47 to i1
  br i1 %48, label %53, label %49

49:                                               ; preds = %46
  %50 = load i8, ptr @H5_libterm_g, align 1, !tbaa !9, !range !11, !noundef !12
  %51 = trunc i8 %50 to i1
  %52 = xor i1 %51, true
  br label %53

53:                                               ; preds = %49, %46
  %54 = phi i1 [ true, %46 ], [ %52, %49 ]
  %55 = xor i1 %54, true
  %56 = xor i1 %55, true
  %57 = zext i1 %56 to i32
  %58 = sext i32 %57 to i64
  %59 = call i64 @llvm.expect.i64(i64 %58, i64 1)
  %60 = icmp ne i64 %59, 0
  br i1 %60, label %61, label %151

61:                                               ; preds = %53
  %62 = load ptr, ptr %3, align 8, !tbaa !19
  %63 = getelementptr inbounds nuw %struct.H5AC_proxy_entry_t, ptr %62, i32 0, i32 2
  %64 = load ptr, ptr %63, align 8, !tbaa !33
  %65 = icmp eq ptr null, %64
  br i1 %65, label %66, label %91

66:                                               ; preds = %61
  %67 = call ptr @H5SL_create(i32 noundef 1, ptr noundef null)
  %68 = load ptr, ptr %3, align 8, !tbaa !19
  %69 = getelementptr inbounds nuw %struct.H5AC_proxy_entry_t, ptr %68, i32 0, i32 2
  store ptr %67, ptr %69, align 8, !tbaa !33
  %70 = icmp eq ptr null, %67
  br i1 %70, label %71, label %90

71:                                               ; preds = %66
  br label %72

72:                                               ; preds = %71
  br label %73

73:                                               ; preds = %72
  br label %74

74:                                               ; preds = %73
  %75 = load i64, ptr @H5E_CACHE_g, align 8, !tbaa !13
  %76 = load i64, ptr @H5E_CANTCREATE_g, align 8, !tbaa !13
  %77 = call i32 (ptr, ptr, i32, i64, i64, ptr, ...) @H5E_printf_stack(ptr noundef @.str.1, ptr noundef @__func__.H5AC_proxy_entry_add_parent, i32 noundef 156, i64 noundef %75, i64 noundef %76, ptr noundef @.str.4)
  br label %78

78:                                               ; preds = %74
  br label %79

79:                                               ; preds = %78
  store i8 1, ptr %7, align 1, !tbaa !9
  %80 = load i8, ptr %7, align 1, !tbaa !9, !range !11, !noundef !12
  %81 = trunc i8 %80 to i1
  %82 = zext i1 %81 to i8
  store i8 %82, ptr %7, align 1, !tbaa !9
  br label %83

83:                                               ; preds = %79
  br label %84

84:                                               ; preds = %83
  br label %85

85:                                               ; preds = %84
  store i32 -1, ptr %6, align 4, !tbaa !17
  br label %150

86:                                               ; No predecessors!
  br label %87

87:                                               ; preds = %86
  br label %88

88:                                               ; preds = %87
  br label %89

89:                                               ; preds = %88
  br label %90

90:                                               ; preds = %89, %66
  br label %91

91:                                               ; preds = %90, %61
  %92 = load ptr, ptr %3, align 8, !tbaa !19
  %93 = getelementptr inbounds nuw %struct.H5AC_proxy_entry_t, ptr %92, i32 0, i32 2
  %94 = load ptr, ptr %93, align 8, !tbaa !33
  %95 = load ptr, ptr %5, align 8, !tbaa !32
  %96 = load ptr, ptr %5, align 8, !tbaa !32
  %97 = getelementptr inbounds nuw %struct.H5C_cache_entry_t, ptr %96, i32 0, i32 1
  %98 = call i32 @H5SL_insert(ptr noundef %94, ptr noundef %95, ptr noundef %97)
  %99 = icmp slt i32 %98, 0
  br i1 %99, label %100, label %119

100:                                              ; preds = %91
  br label %101

101:                                              ; preds = %100
  br label %102

102:                                              ; preds = %101
  br label %103

103:                                              ; preds = %102
  %104 = load i64, ptr @H5E_CACHE_g, align 8, !tbaa !13
  %105 = load i64, ptr @H5E_CANTINSERT_g, align 8, !tbaa !13
  %106 = call i32 (ptr, ptr, i32, i64, i64, ptr, ...) @H5E_printf_stack(ptr noundef @.str.1, ptr noundef @__func__.H5AC_proxy_entry_add_parent, i32 noundef 160, i64 noundef %104, i64 noundef %105, ptr noundef @.str.5)
  br label %107

107:                                              ; preds = %103
  br label %108

108:                                              ; preds = %107
  store i8 1, ptr %7, align 1, !tbaa !9
  %109 = load i8, ptr %7, align 1, !tbaa !9, !range !11, !noundef !12
  %110 = trunc i8 %109 to i1
  %111 = zext i1 %110 to i8
  store i8 %111, ptr %7, align 1, !tbaa !9
  br label %112

112:                                              ; preds = %108
  br label %113

113:                                              ; preds = %112
  br label %114

114:                                              ; preds = %113
  store i32 -1, ptr %6, align 4, !tbaa !17
  br label %150

115:                                              ; No predecessors!
  br label %116

116:                                              ; preds = %115
  br label %117

117:                                              ; preds = %116
  br label %118

118:                                              ; preds = %117
  br label %119

119:                                              ; preds = %118, %91
  %120 = load ptr, ptr %3, align 8, !tbaa !19
  %121 = getelementptr inbounds nuw %struct.H5AC_proxy_entry_t, ptr %120, i32 0, i32 3
  %122 = load i64, ptr %121, align 8, !tbaa !34
  %123 = icmp ugt i64 %122, 0
  br i1 %123, label %124, label %149

124:                                              ; preds = %119
  %125 = load ptr, ptr %5, align 8, !tbaa !32
  %126 = load ptr, ptr %3, align 8, !tbaa !19
  %127 = call i32 @H5AC_create_flush_dependency(ptr noundef %125, ptr noundef %126)
  %128 = icmp slt i32 %127, 0
  br i1 %128, label %129, label %148

129:                                              ; preds = %124
  br label %130

130:                                              ; preds = %129
  br label %131

131:                                              ; preds = %130
  br label %132

132:                                              ; preds = %131
  %133 = load i64, ptr @H5E_CACHE_g, align 8, !tbaa !13
  %134 = load i64, ptr @H5E_CANTDEPEND_g, align 8, !tbaa !13
  %135 = call i32 (ptr, ptr, i32, i64, i64, ptr, ...) @H5E_printf_stack(ptr noundef @.str.1, ptr noundef @__func__.H5AC_proxy_entry_add_parent, i32 noundef 168, i64 noundef %133, i64 noundef %134, ptr noundef @.str.6)
  br label %136

136:                                              ; preds = %132
  br label %137

137:                                              ; preds = %136
  store i8 1, ptr %7, align 1, !tbaa !9
  %138 = load i8, ptr %7, align 1, !tbaa !9, !range !11, !noundef !12
  %139 = trunc i8 %138 to i1
  %140 = zext i1 %139 to i8
  store i8 %140, ptr %7, align 1, !tbaa !9
  br label %141

141:                                              ; preds = %137
  br label %142

142:                                              ; preds = %141
  br label %143

143:                                              ; preds = %142
  store i32 -1, ptr %6, align 4, !tbaa !17
  br label %150

144:                                              ; No predecessors!
  br label %145

145:                                              ; preds = %144
  br label %146

146:                                              ; preds = %145
  br label %147

147:                                              ; preds = %146
  br label %148

148:                                              ; preds = %147, %124
  br label %149

149:                                              ; preds = %148, %119
  br label %150

150:                                              ; preds = %149, %143, %114, %85, %40
  br label %151

151:                                              ; preds = %150, %53
  %152 = load i32, ptr %6, align 4, !tbaa !17
  call void @llvm.lifetime.end.p0(i64 1, ptr %7) #4
  call void @llvm.lifetime.end.p0(i64 4, ptr %6) #4
  call void @llvm.lifetime.end.p0(i64 8, ptr %5) #4
  ret i32 %152
}