; Function Attrs: nounwind uwtable
define range(i32 -1, 1) i32 @H5AC_proxy_entry_add_parent(ptr noundef %0, ptr noundef %1) local_unnamed_addr #1 {
  %3 = load i8, ptr @H5AC_init_g, align 1, !tbaa !3, !range !7, !noundef !8
  %4 = trunc nuw i8 %3 to i1
  %5 = load i8, ptr @H5_libterm_g, align 1, !range !7
  %6 = trunc nuw i8 %5 to i1
  %7 = select i1 %4, i1 true, i1 %6
  br i1 %7, label %15, label %8, !prof !9

8:                                                ; preds = %2
  store i8 1, ptr @H5AC_init_g, align 1, !tbaa !3
  %9 = tail call i32 @H5AC__init_package() #3
  %10 = icmp slt i32 %9, 0
  br i1 %10, label %11, label %._crit_edge

._crit_edge:                                      ; preds = %8
  %.pre = load i8, ptr @H5AC_init_g, align 1, !tbaa !3, !range !7
  %.pre13 = load i8, ptr @H5_libterm_g, align 1, !range !7
  %.pre14 = trunc nuw i8 %.pre to i1
  %.pre15 = trunc nuw i8 %.pre13 to i1
  br label %15

11:                                               ; preds = %8
  store i8 0, ptr @H5AC_init_g, align 1, !tbaa !3
  %12 = load i64, ptr @H5E_FUNC_g, align 8, !tbaa !10
  %13 = load i64, ptr @H5E_CANTINIT_g, align 8, !tbaa !10
  %14 = tail call i32 (ptr, ptr, i32, i64, i64, ptr, ...) @H5E_printf_stack(ptr noundef nonnull @.str.1, ptr noundef nonnull @__func__.H5AC_proxy_entry_add_parent, i32 noundef 146, i64 noundef %12, i64 noundef %13, ptr noundef nonnull @.str.2) #3
  br label %48

15:                                               ; preds = %._crit_edge, %2
  %.pre-phi16 = phi i1 [ %.pre15, %._crit_edge ], [ %6, %2 ]
  %.pre-phi = phi i1 [ %.pre14, %._crit_edge ], [ %4, %2 ]
  %16 = xor i1 %.pre-phi16, true
  %17 = select i1 %.pre-phi, i1 true, i1 %16
  br i1 %17, label %18, label %48, !prof !9

18:                                               ; preds = %15
  %19 = getelementptr inbounds nuw i8, ptr %0, i64 256
  %20 = load ptr, ptr %19, align 8, !tbaa !26
  %21 = icmp eq ptr %20, null
  br i1 %21, label %22, label %29

22:                                               ; preds = %18
  %23 = tail call ptr @H5SL_create(i32 noundef 1, ptr noundef null) #3
  store ptr %23, ptr %19, align 8, !tbaa !26
  %24 = icmp eq ptr %23, null
  br i1 %24, label %25, label %29

25:                                               ; preds = %22
  %26 = load i64, ptr @H5E_CACHE_g, align 8, !tbaa !10
  %27 = load i64, ptr @H5E_CANTCREATE_g, align 8, !tbaa !10
  %28 = tail call i32 (ptr, ptr, i32, i64, i64, ptr, ...) @H5E_printf_stack(ptr noundef nonnull @.str.1, ptr noundef nonnull @__func__.H5AC_proxy_entry_add_parent, i32 noundef 156, i64 noundef %26, i64 noundef %27, ptr noundef nonnull @.str.4) #3
  br label %48

29:                                               ; preds = %22, %18
  %30 = phi ptr [ %23, %22 ], [ %20, %18 ]
  %31 = getelementptr inbounds nuw i8, ptr %1, i64 8
  %32 = tail call i32 @H5SL_insert(ptr noundef nonnull %30, ptr noundef %1, ptr noundef nonnull %31) #3
  %33 = icmp slt i32 %32, 0
  br i1 %33, label %34, label %38

34:                                               ; preds = %29
  %35 = load i64, ptr @H5E_CACHE_g, align 8, !tbaa !10
  %36 = load i64, ptr @H5E_CANTINSERT_g, align 8, !tbaa !10
  %37 = tail call i32 (ptr, ptr, i32, i64, i64, ptr, ...) @H5E_printf_stack(ptr noundef nonnull @.str.1, ptr noundef nonnull @__func__.H5AC_proxy_entry_add_parent, i32 noundef 160, i64 noundef %35, i64 noundef %36, ptr noundef nonnull @.str.5) #3
  br label %48

38:                                               ; preds = %29
  %39 = getelementptr inbounds nuw i8, ptr %0, i64 264
  %40 = load i64, ptr %39, align 8, !tbaa !27
  %.not = icmp eq i64 %40, 0
  br i1 %.not, label %48, label %41

41:                                               ; preds = %38
  %42 = tail call i32 @H5AC_create_flush_dependency(ptr noundef nonnull %1, ptr noundef nonnull %0) #3
  %43 = icmp slt i32 %42, 0
  br i1 %43, label %44, label %48

44:                                               ; preds = %41
  %45 = load i64, ptr @H5E_CACHE_g, align 8, !tbaa !10
  %46 = load i64, ptr @H5E_CANTDEPEND_g, align 8, !tbaa !10
  %47 = tail call i32 (ptr, ptr, i32, i64, i64, ptr, ...) @H5E_printf_stack(ptr noundef nonnull @.str.1, ptr noundef nonnull @__func__.H5AC_proxy_entry_add_parent, i32 noundef 168, i64 noundef %45, i64 noundef %46, ptr noundef nonnull @.str.6) #3
  br label %48

48:                                               ; preds = %11, %25, %34, %44, %41, %38, %15
  %.0 = phi i32 [ -1, %11 ], [ -1, %25 ], [ -1, %34 ], [ -1, %44 ], [ 0, %41 ], [ 0, %38 ], [ 0, %15 ]
  ret i32 %.0
}